target datalayout = "e-m:e-p270:32:32-p271:32:32-p272:64:64-i64:64-i128:128-f80:128-n8:16:32:64-S128"
target triple = "x86_64-pc-linux-gnu"

%struct.grpc_slice = type { ptr, %"union.grpc_slice::grpc_slice_data" }
%"union.grpc_slice::grpc_slice_data" = type { %"struct.grpc_slice::grpc_slice_data::grpc_slice_refcounted", [8 x i8] }
%"struct.grpc_slice::grpc_slice_data::grpc_slice_refcounted" = type { i64, ptr }
%"struct.grpc_slice::grpc_slice_data::grpc_slice_inlined" = type { i8, [23 x i8] }
%struct.grpc_slice_refcount = type { %"struct.std::atomic", ptr }
%"struct.std::atomic" = type { %"struct.std::__atomic_base" }
%"struct.std::__atomic_base" = type { i64 }
%"class.std::unique_ptr" = type { %"struct.std::__uniq_ptr_data" }
%"struct.std::__uniq_ptr_data" = type { %"class.std::__uniq_ptr_impl" }
%"class.std::__uniq_ptr_impl" = type { %"class.std::tuple" }
%"class.std::tuple" = type { %"struct.std::_Tuple_impl" }
%"struct.std::_Tuple_impl" = type { %"struct.std::_Head_base.1" }
%"struct.std::_Head_base.1" = type { ptr }
%"class.grpc_core::MovedStringSliceRefCount" = type { %struct.grpc_slice_refcount, %"class.std::unique_ptr" }

; Function Attrs: mustprogress nounwind uwtable
define linkonce_odr noundef nonnull align 8 dereferenceable(8) ptr @_ZNSt10_Head_baseILm0EPcLb0EE7_M_headERS1_(ptr noundef nonnull align 8 dereferenceable(8) %0) #7 comdat align 2 {
  %2 = alloca ptr, align 8
  store ptr %0, ptr %2, align 8, !tbaa !75
  %3 = load ptr, ptr %2, align 8, !tbaa !75
  %4 = getelementptr inbounds nuw %"struct.std::_Head_base.1", ptr %3, i32 0, i32 0
  ret ptr %4
}

; Function Attrs: mustprogress nounwind uwtable
define linkonce_odr noundef nonnull align 8 dereferenceable(8) ptr @_ZNSt11_Tuple_implILm0EJPcN9grpc_core17DefaultDeleteCharEEE7_M_headERS3_(ptr noundef nonnull align 8 dereferenceable(8) %0) #7 comdat align 2 {
  %2 = alloca ptr, align 8
  store ptr %0, ptr %2, align 8, !tbaa !70
  %3 = load ptr, ptr %2, align 8, !tbaa !70
  %4 = call noundef nonnull align 8 dereferenceable(8) ptr @_ZNSt10_Head_baseILm0EPcLb0EE7_M_headERS1_(ptr noundef nonnull align 8 dereferenceable(8) %3) #3
  ret ptr %4
}

; Function Attrs: mustprogress nounwind uwtable
define linkonce_odr noundef nonnull align 8 dereferenceable(8) ptr @_ZSt12__get_helperILm0EPcJN9grpc_core17DefaultDeleteCharEEERT0_RSt11_Tuple_implIXT_EJS3_DpT1_EE(ptr noundef nonnull align 8 dereferenceable(8) %0) #7 comdat {
  %2 = alloca ptr, align 8
  store ptr %0, ptr %2, align 8, !tbaa !70
  %3 = load ptr, ptr %2, align 8, !tbaa !70
  %4 = call noundef nonnull align 8 dereferenceable(8) ptr @_ZNSt11_Tuple_implILm0EJPcN9grpc_core17DefaultDeleteCharEEE7_M_headERS3_(ptr noundef nonnull align 8 dereferenceable(8) %3) #3
  ret ptr %4
}

; Function Attrs: mustprogress nounwind uwtable
define linkonce_odr void @_ZNSt11_Tuple_implILm1EJN9grpc_core17DefaultDeleteCharEEEC2EOS2_(ptr noundef nonnull align 1 dereferenceable(1) %0, ptr noundef nonnull align 1 dereferenceable(1) %1) unnamed_addr #7 comdat align 2 {
  %3 = alloca ptr, align 8
  %4 = alloca ptr, align 8
  store ptr %0, ptr %3, align 8, !tbaa !73
  store ptr %1, ptr %4, align 8, !tbaa !73
  ret void
}

; Function Attrs: mustprogress nounwind uwtable
define linkonce_odr noundef nonnull align 8 dereferenceable(8) ptr @_ZNSt10_Head_baseILm0EPcLb0EE7_M_headERKS1_(ptr noundef nonnull align 8 dereferenceable(8) %0) #7 comdat align 2 {
  %2 = alloca ptr, align 8
  store ptr %0, ptr %2, align 8, !tbaa !75
  %3 = load ptr, ptr %2, align 8, !tbaa !75
  %4 = getelementptr inbounds nuw %"struct.std::_Head_base.1", ptr %3, i32 0, i32 0
  ret ptr %4
}

; Function Attrs: mustprogress nounwind uwtable
define linkonce_odr void @_ZNSt13__atomic_baseImEC2Em(ptr noundef nonnull align 8 dereferenceable(8) %0, i64 noundef %1) unnamed_addr #7 comdat align 2 {
  %3 = alloca ptr, align 8
  %4 = alloca i64, align 8
  store ptr %0, ptr %3, align 8, !tbaa !61
  store i64 %1, ptr %4, align 8, !tbaa !12
  %5 = load ptr, ptr %3, align 8
  %6 = getelementptr inbounds nuw %"struct.std::__atomic_base", ptr %5, i32 0, i32 0
  %7 = load i64, ptr %4, align 8, !tbaa !12
  store i64 %7, ptr %6, align 8, !tbaa !63
  ret void
}

; Function Attrs: mustprogress nounwind uwtable
define linkonce_odr noundef nonnull align 8 dereferenceable(8) ptr @_ZSt3getILm0EJPcN9grpc_core17DefaultDeleteCharEEERNSt13tuple_elementIXT_ESt5tupleIJDpT0_EEE4typeERS7_(ptr noundef nonnull align 8 dereferenceable(8) %0) #7 comdat {
  %2 = alloca ptr, align 8
  store ptr %0, ptr %2, align 8, !tbaa !68
  %3 = load ptr, ptr %2, align 8, !tbaa !68
  %4 = call noundef nonnull align 8 dereferenceable(8) ptr @_ZSt12__get_helperILm0EPcJN9grpc_core17DefaultDeleteCharEEERT0_RSt11_Tuple_implIXT_EJS3_DpT1_EE(ptr noundef nonnull align 8 dereferenceable(8) %3) #3
  ret ptr %4
}

; Function Attrs: mustprogress nounwind uwtable
define linkonce_odr void @_ZNSt11_Tuple_implILm0EJPcN9grpc_core17DefaultDeleteCharEEEC2EOS3_(ptr noundef nonnull align 8 dereferenceable(8) %0, ptr noundef nonnull align 8 dereferenceable(8) %1) unnamed_addr #7 comdat align 2 {
  %3 = alloca ptr, align 8
  %4 = alloca ptr, align 8
  store ptr %0, ptr %3, align 8, !tbaa !70
  store ptr %1, ptr %4, align 8, !tbaa !70
  %5 = load ptr, ptr %3, align 8
  %6 = load ptr, ptr %4, align 8, !tbaa !70
  call void @_ZNSt11_Tuple_implILm1EJN9grpc_core17DefaultDeleteCharEEEC2EOS2_(ptr noundef nonnull align 1 dereferenceable(1) %5, ptr noundef nonnull align 1 dereferenceable(1) %6) #3
  %7 = load ptr, ptr %4, align 8, !tbaa !70
  call void @llvm.memcpy.p0.p0.i64(ptr align 8 %5, ptr align 8 %7, i64 8, i1 false), !tbaa.struct !72
  ret void
}

; Function Attrs: mustprogress nounwind uwtable
define linkonce_odr noundef nonnull align 8 dereferenceable(8) ptr @_ZNSt11_Tuple_implILm0EJPcN9grpc_core17DefaultDeleteCharEEE7_M_headERKS3_(ptr noundef nonnull align 8 dereferenceable(8) %0) #7 comdat align 2 {
  %2 = alloca ptr, align 8
  store ptr %0, ptr %2, align 8, !tbaa !70
  %3 = load ptr, ptr %2, align 8, !tbaa !70
  %4 = call noundef nonnull align 8 dereferenceable(8) ptr @_ZNSt10_Head_baseILm0EPcLb0EE7_M_headERKS1_(ptr noundef nonnull align 8 dereferenceable(8) %3) #3
  ret ptr %4
}

; Function Attrs: mustprogress nounwind uwtable
define linkonce_odr void @_ZNSt6atomicImEC2Em(ptr noundef nonnull align 8 dereferenceable(8) %0, i64 noundef %1) unnamed_addr #7 comdat align 2 {
  %3 = alloca ptr, align 8
  %4 = alloca i64, align 8
  store ptr %0, ptr %3, align 8, !tbaa !59
  store i64 %1, ptr %4, align 8, !tbaa !12
  %5 = load ptr, ptr %3, align 8
  %6 = load i64, ptr %4, align 8, !tbaa !12
  call void @_ZNSt13__atomic_baseImEC2Em(ptr noundef nonnull align 8 dereferenceable(8) %5, i64 noundef %6) #3
  ret void
}

; Function Attrs: mustprogress nounwind uwtable
define linkonce_odr noundef nonnull align 8 dereferenceable(8) ptr @_ZNSt15__uniq_ptr_implIcN9grpc_core17DefaultDeleteCharEE6_M_ptrEv(ptr noundef nonnull align 8 dereferenceable(8) %0) #7 comdat align 2 {
  %2 = alloca ptr, align 8
  store ptr %0, ptr %2, align 8, !tbaa !66
  %3 = load ptr, ptr %2, align 8
  %4 = getelementptr inbounds nuw %"class.std::__uniq_ptr_impl", ptr %3, i32 0, i32 0
  %5 = call noundef nonnull align 8 dereferenceable(8) ptr @_ZSt3getILm0EJPcN9grpc_core17DefaultDeleteCharEEERNSt13tuple_elementIXT_ESt5tupleIJDpT0_EEE4typeERS7_(ptr noundef nonnull align 8 dereferenceable(8) %4) #3
  ret ptr %5
}

; Function Attrs: mustprogress nounwind uwtable
define linkonce_odr void @_ZNSt5tupleIJPcN9grpc_core17DefaultDeleteCharEEEC2EOS3_(ptr noundef nonnull align 8 dereferenceable(8) %0, ptr noundef nonnull align 8 dereferenceable(8) %1) unnamed_addr #7 comdat align 2 {
  %3 = alloca ptr, align 8
  %4 = alloca ptr, align 8
  store ptr %0, ptr %3, align 8, !tbaa !68
  store ptr %1, ptr %4, align 8, !tbaa !68
  %5 = load ptr, ptr %3, align 8
  %6 = load ptr, ptr %4, align 8, !tbaa !68
  call void @_ZNSt11_Tuple_implILm0EJPcN9grpc_core17DefaultDeleteCharEEEC2EOS3_(ptr noundef nonnull align 8 dereferenceable(8) %5, ptr noundef nonnull align 8 dereferenceable(8) %6) #3
  ret void
}

; Function Attrs: mustprogress nounwind uwtable
define linkonce_odr noundef nonnull align 8 dereferenceable(8) ptr @_ZSt12__get_helperILm0EPcJN9grpc_core17DefaultDeleteCharEEERKT0_RKSt11_Tuple_implIXT_EJS3_DpT1_EE(ptr noundef nonnull align 8 dereferenceable(8) %0) #7 comdat {
  %2 = alloca ptr, align 8
  store ptr %0, ptr %2, align 8, !tbaa !70
  %3 = load ptr, ptr %2, align 8, !tbaa !70
  %4 = call noundef nonnull align 8 dereferenceable(8) ptr @_ZNSt11_Tuple_implILm0EJPcN9grpc_core17DefaultDeleteCharEEE7_M_headERKS3_(ptr noundef nonnull align 8 dereferenceable(8) %3) #3
  ret ptr %4
}

; Function Attrs: mustprogress nounwind uwtable
define linkonce_odr void @_ZN19grpc_slice_refcountC2EPFvPS_E(ptr noundef nonnull align 8 dereferenceable(16) %0, ptr noundef %1) unnamed_addr #7 comdat align 2 {
  %3 = alloca ptr, align 8
  %4 = alloca ptr, align 8
  store ptr %0, ptr %3, align 8, !tbaa !18
  store ptr %1, ptr %4, align 8, !tbaa !14
  %5 = load ptr, ptr %3, align 8
  %6 = getelementptr inbounds nuw %struct.grpc_slice_refcount, ptr %5, i32 0, i32 0
  call void @_ZNSt6atomicImEC2Em(ptr noundef nonnull align 8 dereferenceable(8) %6, i64 noundef 1) #3
  %7 = getelementptr inbounds nuw %struct.grpc_slice_refcount, ptr %5, i32 0, i32 1
  %8 = load ptr, ptr %4, align 8, !tbaa !14
  store ptr %8, ptr %7, align 8, !tbaa !47
  ret void
}

; Function Attrs: mustprogress nounwind uwtable
define linkonce_odr void @_ZNSt15__uniq_ptr_implIcN9grpc_core17DefaultDeleteCharEEC2EOS2_(ptr noundef nonnull align 8 dereferenceable(8) %0, ptr noundef nonnull align 8 dereferenceable(8) %1) unnamed_addr #7 comdat align 2 {
  %3 = alloca ptr, align 8
  %4 = alloca ptr, align 8
  store ptr %0, ptr %3, align 8, !tbaa !66
  store ptr %1, ptr %4, align 8, !tbaa !66
  %5 = load ptr, ptr %3, align 8
  %6 = getelementptr inbounds nuw %"class.std::__uniq_ptr_impl", ptr %5, i32 0, i32 0
  %7 = load ptr, ptr %4, align 8, !tbaa !66
  %8 = getelementptr inbounds nuw %"class.std::__uniq_ptr_impl", ptr %7, i32 0, i32 0
  call void @_ZNSt5tupleIJPcN9grpc_core17DefaultDeleteCharEEEC2EOS3_(ptr noundef nonnull align 8 dereferenceable(8) %6, ptr noundef nonnull align 8 dereferenceable(8) %8) #3
  %9 = load ptr, ptr %4, align 8, !tbaa !66
  %10 = call noundef nonnull align 8 dereferenceable(8) ptr @_ZNSt15__uniq_ptr_implIcN9grpc_core17DefaultDeleteCharEE6_M_ptrEv(ptr noundef nonnull align 8 dereferenceable(8) %9) #3
  store ptr null, ptr %10, align 8, !tbaa !10
  ret void
}

; Function Attrs: mustprogress nounwind uwtable
define linkonce_odr noundef nonnull align 8 dereferenceable(8) ptr @_ZSt3getILm0EJPcN9grpc_core17DefaultDeleteCharEEERKNSt13tuple_elementIXT_ESt5tupleIJDpT0_EEE4typeERKS7_(ptr noundef nonnull align 8 dereferenceable(8) %0) #7 comdat {
  %2 = alloca ptr, align 8
  store ptr %0, ptr %2, align 8, !tbaa !68
  %3 = load ptr, ptr %2, align 8, !tbaa !68
  %4 = call noundef nonnull align 8 dereferenceable(8) ptr @_ZSt12__get_helperILm0EPcJN9grpc_core17DefaultDeleteCharEEERKT0_RKSt11_Tuple_implIXT_EJS3_DpT1_EE(ptr noundef nonnull align 8 dereferenceable(8) %3) #3
  ret ptr %4
}

; Function Attrs: mustprogress nounwind uwtable
define linkonce_odr void @_ZN9grpc_core24MovedStringSliceRefCountC2EOSt10unique_ptrIcNS_17DefaultDeleteCharEE(ptr noundef nonnull align 8 dereferenceable(24) %0, ptr noundef nonnull align 8 dereferenceable(8) %1) unnamed_addr #7 comdat align 2 {
  %3 = alloca ptr, align 8
  %4 = alloca ptr, align 8
  store ptr %0, ptr %3, align 8, !tbaa !35
  store ptr %1, ptr %4, align 8, !tbaa !33
  %5 = load ptr, ptr %3, align 8
  call void @_ZN19grpc_slice_refcountC2EPFvPS_E(ptr noundef nonnull align 8 dereferenceable(16) %5, ptr noundef @_ZN9grpc_core24MovedStringSliceRefCount7DestroyEP19grpc_slice_refcount)
  %6 = getelementptr inbounds nuw %"class.grpc_core::MovedStringSliceRefCount", ptr %5, i32 0, i32 1
  %7 = load ptr, ptr %4, align 8, !tbaa !33
  call void @_ZNSt10unique_ptrIcN9grpc_core17DefaultDeleteCharEEC2EOS2_(ptr noundef nonnull align 8 dereferenceable(8) %6, ptr noundef nonnull align 8 dereferenceable(8) %7) #3
  ret void
}

; Function Attrs: mustprogress nounwind uwtable
define linkonce_odr void @_ZNSt15__uniq_ptr_dataIcN9grpc_core17DefaultDeleteCharELb1ELb1EEC2EOS2_(ptr noundef nonnull align 8 dereferenceable(8) %0, ptr noundef nonnull align 8 dereferenceable(8) %1) unnamed_addr #7 comdat align 2 {
  %3 = alloca ptr, align 8
  %4 = alloca ptr, align 8
  store ptr %0, ptr %3, align 8, !tbaa !64
  store ptr %1, ptr %4, align 8, !tbaa !64
  %5 = load ptr, ptr %3, align 8
  %6 = load ptr, ptr %4, align 8, !tbaa !64
  call void @_ZNSt15__uniq_ptr_implIcN9grpc_core17DefaultDeleteCharEEC2EOS2_(ptr noundef nonnull align 8 dereferenceable(8) %5, ptr noundef nonnull align 8 dereferenceable(8) %6) #3
  ret void
}

; Function Attrs: mustprogress nounwind uwtable
define linkonce_odr noundef ptr @_ZNKSt15__uniq_ptr_implIcN9grpc_core17DefaultDeleteCharEE6_M_ptrEv(ptr noundef nonnull align 8 dereferenceable(8) %0) #7 comdat align 2 {
  %2 = alloca ptr, align 8
  store ptr %0, ptr %2, align 8, !tbaa !66
  %3 = load ptr, ptr %2, align 8
  %4 = getelementptr inbounds nuw %"class.std::__uniq_ptr_impl", ptr %3, i32 0, i32 0
  %5 = call noundef nonnull align 8 dereferenceable(8) ptr @_ZSt3getILm0EJPcN9grpc_core17DefaultDeleteCharEEERKNSt13tuple_elementIXT_ESt5tupleIJDpT0_EEE4typeERKS7_(ptr noundef nonnull align 8 dereferenceable(8) %4) #3
  %6 = load ptr, ptr %5, align 8, !tbaa !10
  ret ptr %6
}

; Function Attrs: mustprogress uwtable
define void @_Z28grpc_slice_from_moved_bufferSt10unique_ptrIcN9grpc_core17DefaultDeleteCharEEm(ptr dead_on_unwind noalias writable sret(%struct.grpc_slice) align 8 %0, ptr noundef %1, i64 noundef %2) #4 personality ptr @__gxx_personality_v0 {
  %4 = alloca ptr, align 8
  %5 = alloca i64, align 8
  %6 = alloca ptr, align 8
  %7 = alloca ptr, align 8
  %8 = alloca i32, align 4
  store ptr %1, ptr %4, align 8, !tbaa !33
  store i64 %2, ptr %5, align 8, !tbaa !12
  call void @llvm.lifetime.start.p0(i64 8, ptr %6) #3
  %9 = call noundef ptr @_ZNKSt10unique_ptrIcN9grpc_core17DefaultDeleteCharEE3getEv(ptr noundef nonnull align 8 dereferenceable(8) %1) #3
  store ptr %9, ptr %6, align 8, !tbaa !10
  %10 = load i64, ptr %5, align 8, !tbaa !12
  %11 = icmp ule i64 %10, 23
  br i1 %11, label %12, label %33

12:                                               ; preds = %3
  %13 = getelementptr inbounds nuw %struct.grpc_slice, ptr %0, i32 0, i32 0
  store ptr null, ptr %13, align 8, !tbaa !3
  %14 = load i64, ptr %5, align 8, !tbaa !12
  %15 = trunc i64 %14 to i8
  %16 = getelementptr inbounds nuw %struct.grpc_slice, ptr %0, i32 0, i32 1
  %17 = getelementptr inbounds nuw %"struct.grpc_slice::grpc_slice_data::grpc_slice_inlined", ptr %16, i32 0, i32 0
  store i8 %15, ptr %17, align 8, !tbaa !9
  %18 = getelementptr inbounds nuw %struct.grpc_slice, ptr %0, i32 0, i32 0
  %19 = load ptr, ptr %18, align 8, !tbaa !3
  %20 = icmp ne ptr %19, null
  br i1 %20, label %21, label %25

21:                                               ; preds = %12
  %22 = getelementptr inbounds nuw %struct.grpc_slice, ptr %0, i32 0, i32 1
  %23 = getelementptr inbounds nuw %"struct.grpc_slice::grpc_slice_data::grpc_slice_refcounted", ptr %22, i32 0, i32 1
  %24 = load ptr, ptr %23, align 8, !tbaa !9
  br label %29

25:                                               ; preds = %12
  %26 = getelementptr inbounds nuw %struct.grpc_slice, ptr %0, i32 0, i32 1
  %27 = getelementptr inbounds nuw %"struct.grpc_slice::grpc_slice_data::grpc_slice_inlined", ptr %26, i32 0, i32 1
  %28 = getelementptr inbounds [23 x i8], ptr %27, i64 0, i64 0
  br label %29

29:                                               ; preds = %25, %21
  %30 = phi ptr [ %24, %21 ], [ %28, %25 ]
  %31 = load ptr, ptr %6, align 8, !tbaa !10
  %32 = load i64, ptr %5, align 8, !tbaa !12
  call void @llvm.memcpy.p0.p0.i64(ptr align 1 %30, ptr align 1 %31, i64 %32, i1 false)
  br label %47

33:                                               ; preds = %3
  %34 = call noalias noundef nonnull ptr @_Znwm(i64 noundef 24) #20
  invoke void @_ZN9grpc_core24MovedStringSliceRefCountC2EOSt10unique_ptrIcNS_17DefaultDeleteCharEE(ptr noundef nonnull align 8 dereferenceable(24) %34, ptr noundef nonnull align 8 dereferenceable(8) %1)
          to label %35 unwind label %43

35:                                               ; preds = %33
  %36 = getelementptr inbounds nuw %struct.grpc_slice, ptr %0, i32 0, i32 0
  store ptr %34, ptr %36, align 8, !tbaa !3
  %37 = load ptr, ptr %6, align 8, !tbaa !10
  %38 = getelementptr inbounds nuw %struct.grpc_slice, ptr %0, i32 0, i32 1
  %39 = getelementptr inbounds nuw %"struct.grpc_slice::grpc_slice_data::grpc_slice_refcounted", ptr %38, i32 0, i32 1
  store ptr %37, ptr %39, align 8, !tbaa !9
  %40 = load i64, ptr %5, align 8, !tbaa !12
  %41 = getelementptr inbounds nuw %struct.grpc_slice, ptr %0, i32 0, i32 1
  %42 = getelementptr inbounds nuw %"struct.grpc_slice::grpc_slice_data::grpc_slice_refcounted", ptr %41, i32 0, i32 0
  store i64 %40, ptr %42, align 8, !tbaa !9
  br label %47

43:                                               ; preds = %33
  %44 = landingpad { ptr, i32 }
          cleanup
  %45 = extractvalue { ptr, i32 } %44, 0
  store ptr %45, ptr %7, align 8
  %46 = extractvalue { ptr, i32 } %44, 1
  store i32 %46, ptr %8, align 4
  call void @_ZdlPvm(ptr noundef %34, i64 noundef 24) #21
  call void @llvm.lifetime.end.p0(i64 8, ptr %6) #3
  br label %48

47:                                               ; preds = %35, %29
  call void @llvm.lifetime.end.p0(i64 8, ptr %6) #3
  ret void

48:                                               ; preds = %43
  %49 = load ptr, ptr %7, align 8
  %50 = load i32, ptr %8, align 4
  %51 = insertvalue { ptr, i32 } poison, ptr %49, 0
  %52 = insertvalue { ptr, i32 } %51, i32 %50, 1
  resume { ptr, i32 } %52
}

; Function Attrs: mustprogress nounwind uwtable
define linkonce_odr void @_ZNSt10unique_ptrIcN9grpc_core17DefaultDeleteCharEEC2EOS2_(ptr noundef nonnull align 8 dereferenceable(8) %0, ptr noundef nonnull align 8 dereferenceable(8) %1) unnamed_addr #7 comdat align 2 {
  %3 = alloca ptr, align 8
  %4 = alloca ptr, align 8
  store ptr %0, ptr %3, align 8, !tbaa !33
  store ptr %1, ptr %4, align 8, !tbaa !33
  %5 = load ptr, ptr %3, align 8
  %6 = getelementptr inbounds nuw %"class.std::unique_ptr", ptr %5, i32 0, i32 0
  %7 = load ptr, ptr %4, align 8, !tbaa !33
  %8 = getelementptr inbounds nuw %"class.std::unique_ptr", ptr %7, i32 0, i32 0
  call void @_ZNSt15__uniq_ptr_dataIcN9grpc_core17DefaultDeleteCharELb1ELb1EEC2EOS2_(ptr noundef nonnull align 8 dereferenceable(8) %6, ptr noundef nonnull align 8 dereferenceable(8) %8) #3
  ret void
}

; Function Attrs: mustprogress nounwind uwtable
define linkonce_odr noundef ptr @_ZNKSt10unique_ptrIcN9grpc_core17DefaultDeleteCharEE3getEv(ptr noundef nonnull align 8 dereferenceable(8) %0) #7 comdat align 2 {
  %2 = alloca ptr, align 8
  store ptr %0, ptr %2, align 8, !tbaa !33
  %3 = load ptr, ptr %2, align 8
  %4 = getelementptr inbounds nuw %"class.std::unique_ptr", ptr %3, i32 0, i32 0
  %5 = call noundef ptr @_ZNKSt15__uniq_ptr_implIcN9grpc_core17DefaultDeleteCharEE6_M_ptrEv(ptr noundef nonnull align 8 dereferenceable(8) %4) #3
  ret ptr %5
}

; Function Attrs: mustprogress uwtable
define void @_Z28grpc_slice_from_moved_stringSt10unique_ptrIcN9grpc_core17DefaultDeleteCharEE(ptr dead_on_unwind noalias writable sret(%struct.grpc_slice) align 8 %0, ptr noundef %1) #4 personality ptr @__gxx_personality_v0 {
  %3 = alloca ptr, align 8
  %4 = alloca i64, align 8
  %5 = alloca %"class.std::unique_ptr", align 8
  %6 = alloca ptr, align 8
  %7 = alloca i32, align 4
  store ptr %1, ptr %3, align 8, !tbaa !33
  call void @llvm.lifetime.start.p0(i64 8, ptr %4) #3
  %8 = call noundef ptr @_ZNKSt10unique_ptrIcN9grpc_core17DefaultDeleteCharEE3getEv(ptr noundef nonnull align 8 dereferenceable(8) %1) #3
  %9 = call i64 @strlen(ptr noundef %8) #19
  store i64 %9, ptr %4, align 8, !tbaa !12
  call void @_ZNSt10unique_ptrIcN9grpc_core17DefaultDeleteCharEEC2EOS2_(ptr noundef nonnull align 8 dereferenceable(8) %5, ptr noundef nonnull align 8 dereferenceable(8) %1) #3
  %10 = load i64, ptr %4, align 8, !tbaa !12
  invoke void @_Z28grpc_slice_from_moved_bufferSt10unique_ptrIcN9grpc_core17DefaultDeleteCharEEm(ptr dead_on_unwind writable sret(%struct.grpc_slice) align 8 %0, ptr noundef %5, i64 noundef %10)
          to label %11 unwind label %12

11:                                               ; preds = %2
  call void @_ZNSt10unique_ptrIcN9grpc_core17DefaultDeleteCharEED2Ev(ptr noundef nonnull align 8 dereferenceable(8) %5) #3
  call void @llvm.lifetime.end.p0(i64 8, ptr %4) #3
  ret void

12:                                               ; preds = %2
  %13 = landingpad { ptr, i32 }
          cleanup
  %14 = extractvalue { ptr, i32 } %13, 0
  store ptr %14, ptr %6, align 8
  %15 = extractvalue { ptr, i32 } %13, 1
  store i32 %15, ptr %7, align 4
  call void @_ZNSt10unique_ptrIcN9grpc_core17DefaultDeleteCharEED2Ev(ptr noundef nonnull align 8 dereferenceable(8) %5) #3
  call void @llvm.lifetime.end.p0(i64 8, ptr %4) #3
  br label %16

16:                                               ; preds = %12
  %17 = load ptr, ptr %6, align 8
  %18 = load i32, ptr %7, align 4
  %19 = insertvalue { ptr, i32 } poison, ptr %17, 0
  %20 = insertvalue { ptr, i32 } %19, i32 %18, 1
  resume { ptr, i32 } %20
}