; Function Attrs: mustprogress uwtable
define void @_Z28grpc_slice_from_moved_stringSt10unique_ptrIcN9grpc_core17DefaultDeleteCharEE(ptr dead_on_unwind noalias writable writeonly sret(%struct.grpc_slice) align 8 captures(none) %0, ptr noundef captures(none) %1) local_unnamed_addr #3 personality ptr @__gxx_personality_v0 {
  %3 = alloca %"class.std::unique_ptr", align 8
  %4 = load ptr, ptr %1, align 8, !tbaa !71
  %5 = tail call i64 @strlen(ptr noundef nonnull dereferenceable(1) %4) #29
  %.cast = ptrtoint ptr %4 to i64
  store i64 %.cast, ptr %3, align 8, !tbaa !71
  store ptr null, ptr %1, align 8, !tbaa !71
  tail call void @llvm.experimental.noalias.scope.decl(metadata !73)
  %6 = icmp ult i64 %5, 24
  br i1 %6, label %13, label %7

7:                                                ; preds = %2
  %8 = invoke noalias noundef nonnull dereferenceable(24) ptr @_Znwm(i64 noundef 24) #28
          to label %.thread unwind label %20

.thread:                                          ; preds = %7
  store i64 1, ptr %8, align 8, !tbaa !20, !noalias !73
  %9 = getelementptr inbounds nuw i8, ptr %8, i64 8
  store ptr @_ZN9grpc_core24MovedStringSliceRefCount7DestroyEP19grpc_slice_refcount, ptr %9, align 8, !tbaa !23, !noalias !73
  %10 = getelementptr inbounds nuw i8, ptr %8, i64 16
  store i64 %.cast, ptr %10, align 8, !tbaa !71, !noalias !73
  %11 = getelementptr inbounds nuw i8, ptr %0, i64 8
  %12 = getelementptr inbounds nuw i8, ptr %0, i64 16
  store ptr %4, ptr %12, align 8, !tbaa !9, !alias.scope !73
  store i64 %5, ptr %11, align 8, !tbaa !9, !alias.scope !73
  store ptr %8, ptr %0, align 8, !tbaa !3, !alias.scope !73
  br label %_ZNSt10unique_ptrIcN9grpc_core17DefaultDeleteCharEED2Ev.exit

13:                                               ; preds = %2
  %14 = trunc nuw nsw i64 %5 to i8
  %15 = getelementptr inbounds nuw i8, ptr %0, i64 8
  store i8 %14, ptr %15, align 8, !tbaa !9, !alias.scope !73
  %16 = getelementptr inbounds nuw i8, ptr %0, i64 9
  tail call void @llvm.memcpy.p0.p0.i64(ptr nonnull align 1 %16, ptr nonnull align 1 %4, i64 %5, i1 false)
  store ptr null, ptr %0, align 8, !tbaa !3, !alias.scope !73
  invoke void @gpr_free(ptr noundef nonnull %4)
          to label %_ZNSt10unique_ptrIcN9grpc_core17DefaultDeleteCharEED2Ev.exit unwind label %17

17:                                               ; preds = %13
  %18 = landingpad { ptr, i32 }
          catch ptr null
  %19 = extractvalue { ptr, i32 } %18, 0
  tail call void @__clang_call_terminate(ptr %19) #30
  unreachable

_ZNSt10unique_ptrIcN9grpc_core17DefaultDeleteCharEED2Ev.exit: ; preds = %.thread, %13
  ret void

20:                                               ; preds = %7
  %21 = landingpad { ptr, i32 }
          cleanup
  call void @_ZNSt10unique_ptrIcN9grpc_core17DefaultDeleteCharEED2Ev(ptr noundef nonnull align 8 dereferenceable(8) %3) #31
  resume { ptr, i32 } %21
}